; Function Attrs: nofree nounwind uwtable
define noalias noundef ptr @Gia_ManFirstFanouts(ptr noundef readonly captures(none) %0) local_unnamed_addr #15 {
  %2 = getelementptr i8, ptr %0, i64 24
  %.val = load i32, ptr %2, align 8
  %3 = tail call noalias dereferenceable_or_null(16) ptr @malloc(i64 noundef 16) #40
  %4 = add i32 %.val, -1
  %or.cond.i.i = icmp ult i32 %4, 15
  %spec.store.select.i.i = select i1 %or.cond.i.i, i32 16, i32 %.val
  %5 = getelementptr inbounds nuw i8, ptr %3, i64 4
  store i32 %spec.store.select.i.i, ptr %3, align 8
  %.not.i.i = icmp eq i32 %spec.store.select.i.i, 0
  br i1 %.not.i.i, label %Vec_IntAlloc.exit.thread.i, label %Vec_IntAlloc.exit.i

Vec_IntAlloc.exit.thread.i:                       ; preds = %1
  %6 = getelementptr inbounds nuw i8, ptr %3, i64 8
  store ptr null, ptr %6, align 8
  store i32 %.val, ptr %5, align 4
  br label %Vec_IntStart.exit

Vec_IntAlloc.exit.i:                              ; preds = %1
  %7 = sext i32 %spec.store.select.i.i to i64
  %8 = shl nsw i64 %7, 2
  %9 = tail call noalias ptr @malloc(i64 noundef %8) #40
  %10 = getelementptr inbounds nuw i8, ptr %3, i64 8
  store ptr %9, ptr %10, align 8
  store i32 %.val, ptr %5, align 4
  %.not.i = icmp eq ptr %9, null
  br i1 %.not.i, label %Vec_IntStart.exit, label %11

11:                                               ; preds = %Vec_IntAlloc.exit.i
  %12 = sext i32 %.val to i64
  %13 = shl nsw i64 %12, 2
  tail call void @llvm.memset.p0.i64(ptr nonnull align 4 %9, i8 0, i64 %13, i1 false)
  br label %Vec_IntStart.exit

Vec_IntStart.exit:                                ; preds = %Vec_IntAlloc.exit.thread.i, %Vec_IntAlloc.exit.i, %11
  %.val49 = phi ptr [ null, %Vec_IntAlloc.exit.thread.i ], [ null, %Vec_IntAlloc.exit.i ], [ %9, %11 ]
  %14 = getelementptr i8, ptr %0, i64 32
  %15 = icmp sgt i32 %.val, 0
  br i1 %15, label %.lr.ph, label %.critedge

.lr.ph:                                           ; preds = %Vec_IntStart.exit
  %16 = getelementptr i8, ptr %0, i64 40
  %.val42 = load ptr, ptr %14, align 8
  %.not = icmp eq ptr %.val42, null
  br label %17

17:                                               ; preds = %.lr.ph, %Gia_ObjIsMuxId.exit.thread
  %18 = phi i32 [ %.val, %.lr.ph ], [ %67, %Gia_ObjIsMuxId.exit.thread ]
  %indvars.iv = phi i64 [ 0, %.lr.ph ], [ %indvars.iv.next, %Gia_ObjIsMuxId.exit.thread ]
  %19 = getelementptr inbounds nuw %struct.Gia_Obj_t_, ptr %.val42, i64 %indvars.iv
  br i1 %.not, label %.critedge, label %20

20:                                               ; preds = %17
  %.val43 = load i64, ptr %19, align 4
  %21 = and i64 %.val43, 2147483648
  %.not.i60 = icmp eq i64 %21, 0
  %22 = and i64 %.val43, 536870911
  %23 = icmp ne i64 %22, 536870911
  %narrow.i = and i1 %.not.i60, %23
  br i1 %narrow.i, label %24, label %57

24:                                               ; preds = %20
  %25 = ptrtoint ptr %19 to i64
  %26 = and i64 %.val43, 536870911
  %27 = trunc nuw nsw i64 %indvars.iv to i32
  %28 = sub nsw i64 %indvars.iv, %26
  %sext86 = shl i64 %28, 32
  %29 = ashr exact i64 %sext86, 30
  %30 = getelementptr inbounds i8, ptr %.val49, i64 %29
  %31 = load i32, ptr %30, align 4
  %32 = icmp eq i32 %31, 0
  br i1 %32, label %33, label %34

33:                                               ; preds = %24
  store i32 %27, ptr %30, align 4
  %.val3.i62.pre = load i64, ptr %19, align 4
  br label %34

34:                                               ; preds = %33, %24
  %.val3.i62 = phi i64 [ %.val3.i62.pre, %33 ], [ %.val43, %24 ]
  %35 = lshr i64 %.val3.i62, 32
  %36 = and i64 %35, 536870911
  %37 = sub nsw i64 %indvars.iv, %36
  %sext = shl i64 %37, 32
  %38 = ashr exact i64 %sext, 30
  %39 = getelementptr inbounds i8, ptr %.val49, i64 %38
  %40 = load i32, ptr %39, align 4
  %41 = icmp eq i32 %40, 0
  br i1 %41, label %42, label %43

42:                                               ; preds = %34
  store i32 %27, ptr %39, align 4
  br label %43

43:                                               ; preds = %42, %34
  %.val44 = load ptr, ptr %16, align 8
  %.not.i64 = icmp eq ptr %.val44, null
  br i1 %.not.i64, label %Gia_ObjIsMuxId.exit.thread, label %Gia_ObjIsMuxId.exit

Gia_ObjIsMuxId.exit:                              ; preds = %43
  %44 = getelementptr inbounds nuw i32, ptr %.val44, i64 %indvars.iv
  %45 = load i32, ptr %44, align 4
  %.not77 = icmp eq i32 %45, 0
  br i1 %.not77, label %Gia_ObjIsMuxId.exit.thread, label %Gia_ObjFaninId2p.exit

Gia_ObjFaninId2p.exit:                            ; preds = %Gia_ObjIsMuxId.exit
  %.val8.i = load ptr, ptr %14, align 8
  %46 = ptrtoint ptr %.val8.i to i64
  %47 = sub i64 %25, %46
  %48 = sdiv exact i64 %47, 12
  %sext.i = shl i64 %48, 32
  %49 = ashr exact i64 %sext.i, 30
  %50 = getelementptr inbounds i8, ptr %.val44, i64 %49
  %51 = load i32, ptr %50, align 4
  %.not7.i = icmp eq i32 %51, 0
  %52 = ashr i32 %51, 1
  %spec.select.i = select i1 %.not7.i, i32 -1, i32 %52
  %53 = sext i32 %spec.select.i to i64
  %54 = getelementptr inbounds i32, ptr %.val49, i64 %53
  %55 = load i32, ptr %54, align 4
  %56 = icmp eq i32 %55, 0
  br i1 %56, label %Gia_ObjFaninId2p.exit71, label %Gia_ObjIsMuxId.exit.thread

Gia_ObjFaninId2p.exit71:                          ; preds = %Gia_ObjFaninId2p.exit
  store i32 %27, ptr %54, align 4
  br label %Gia_ObjIsMuxId.exit.thread

57:                                               ; preds = %20
  %.not.i72 = icmp ne i64 %21, 0
  %narrow.i73 = and i1 %.not.i72, %23
  br i1 %narrow.i73, label %58, label %Gia_ObjIsMuxId.exit.thread

58:                                               ; preds = %57
  %59 = and i64 %.val43, 536870911
  %60 = sub nsw i64 %indvars.iv, %59
  %sext85 = shl i64 %60, 32
  %61 = ashr exact i64 %sext85, 30
  %62 = getelementptr inbounds i8, ptr %.val49, i64 %61
  %63 = load i32, ptr %62, align 4
  %64 = icmp eq i32 %63, 0
  br i1 %64, label %65, label %Gia_ObjIsMuxId.exit.thread

65:                                               ; preds = %58
  %66 = trunc nuw nsw i64 %indvars.iv to i32
  store i32 %66, ptr %62, align 4
  %.pre = load i32, ptr %2, align 8
  br label %Gia_ObjIsMuxId.exit.thread

Gia_ObjIsMuxId.exit.thread:                       ; preds = %43, %Gia_ObjFaninId2p.exit71, %Gia_ObjFaninId2p.exit, %Gia_ObjIsMuxId.exit, %58, %65, %57
  %67 = phi i32 [ %18, %43 ], [ %18, %Gia_ObjFaninId2p.exit71 ], [ %18, %Gia_ObjFaninId2p.exit ], [ %18, %Gia_ObjIsMuxId.exit ], [ %18, %58 ], [ %.pre, %65 ], [ %18, %57 ]
  %indvars.iv.next = add nuw nsw i64 %indvars.iv, 1
  %68 = sext i32 %67 to i64
  %69 = icmp slt i64 %indvars.iv.next, %68
  br i1 %69, label %17, label %.critedge, !llvm.loop !68

.critedge:                                        ; preds = %17, %Gia_ObjIsMuxId.exit.thread, %Vec_IntStart.exit
  ret ptr %3
}